target datalayout = "e-m:e-p270:32:32-p271:32:32-p272:64:64-i64:64-i128:128-f80:128-n8:16:32:64-S128"
target triple = "x86_64-pc-linux-gnu"

%struct.sock_gres = type { ptr, ptr, i64, ptr, ptr, ptr, i64, i32, i64, i64, i8 }
%struct.gres_state = type { i32, i32, ptr, ptr, i32 }
%struct.gres_job_state = type { i32, ptr, i16, i16, i64, i64, i64, i64, i64, i16, i16, i64, i32, ptr, ptr, ptr, ptr, i32, i64, i32, ptr, ptr, ptr, ptr, ptr, ptr }
%struct.gres_node_state = type { ptr, i64, i64, i8, i8, i64, ptr, i64, ptr, i16, i32, ptr, ptr, ptr, ptr, ptr, ptr, ptr, ptr, i16, ptr, ptr, ptr, ptr }

@sorting_links_cnt = internal global ptr null, align 8

; Function Attrs: nounwind uwtable
define internal void @_update_and_sort_by_links(ptr noundef %0, ptr noundef %1, i32 noundef %2, i32 noundef %3, ptr noundef %4) #0 {
  %6 = alloca ptr, align 8
  %7 = alloca ptr, align 8
  %8 = alloca i32, align 4
  %9 = alloca i32, align 4
  %10 = alloca ptr, align 8
  %11 = alloca i32, align 4
  store ptr %0, ptr %6, align 8
  store ptr %1, ptr %7, align 8
  store i32 %2, ptr %8, align 4
  store i32 %3, ptr %9, align 4
  store ptr %4, ptr %10, align 8
  call void @llvm.lifetime.start.p0(i64 4, ptr %11) #5
  store i32 0, ptr %11, align 4
  br label %12

12:                                               ; preds = %48, %5
  %13 = load i32, ptr %11, align 4
  %14 = load i32, ptr %9, align 4
  %15 = icmp slt i32 %13, %14
  br i1 %15, label %17, label %16

16:                                               ; preds = %12
  call void @llvm.lifetime.end.p0(i64 4, ptr %11) #5
  br label %51

17:                                               ; preds = %12
  %18 = load i32, ptr %11, align 4
  %19 = load i32, ptr %8, align 4
  %20 = icmp eq i32 %18, %19
  br i1 %20, label %29, label %21

21:                                               ; preds = %17
  %22 = load ptr, ptr %10, align 8
  %23 = getelementptr inbounds nuw %struct.gres_node_state, ptr %22, i32 0, i32 8
  %24 = load ptr, ptr %23, align 8
  %25 = load i32, ptr %11, align 4
  %26 = sext i32 %25 to i64
  %27 = call i32 @slurm_bit_test(ptr noundef %24, i64 noundef %26)
  %28 = icmp ne i32 %27, 0
  br i1 %28, label %29, label %30

29:                                               ; preds = %21, %17
  br label %48

30:                                               ; preds = %21
  %31 = load ptr, ptr %10, align 8
  %32 = getelementptr inbounds nuw %struct.gres_node_state, ptr %31, i32 0, i32 11
  %33 = load ptr, ptr %32, align 8
  %34 = load i32, ptr %8, align 4
  %35 = sext i32 %34 to i64
  %36 = getelementptr inbounds ptr, ptr %33, i64 %35
  %37 = load ptr, ptr %36, align 8
  %38 = load i32, ptr %11, align 4
  %39 = sext i32 %38 to i64
  %40 = getelementptr inbounds i32, ptr %37, i64 %39
  %41 = load i32, ptr %40, align 4
  %42 = load ptr, ptr %7, align 8
  %43 = load i32, ptr %11, align 4
  %44 = sext i32 %43 to i64
  %45 = getelementptr inbounds i32, ptr %42, i64 %44
  %46 = load i32, ptr %45, align 4
  %47 = add nsw i32 %46, %41
  store i32 %47, ptr %45, align 4
  br label %48

48:                                               ; preds = %30, %29
  %49 = load i32, ptr %11, align 4
  %50 = add nsw i32 %49, 1
  store i32 %50, ptr %11, align 4
  br label %12, !llvm.loop !64

51:                                               ; preds = %16
  %52 = load ptr, ptr %7, align 8
  store ptr %52, ptr @sorting_links_cnt, align 8
  %53 = load ptr, ptr %6, align 8
  %54 = load i32, ptr %9, align 4
  %55 = sext i32 %54 to i64
  call void @qsort(ptr noundef %53, i64 noundef %55, i64 noundef 4, ptr noundef @_compare_gres_by_links)
  store ptr null, ptr @sorting_links_cnt, align 8
  ret void
}

; Function Attrs: nounwind uwtable
define internal i64 @_pick_gres_topo(ptr noundef %0, i32 noundef %1, i32 noundef %2, i32 noundef %3, ptr noundef %4, ptr noundef %5) #0 {
  %7 = alloca i64, align 8
  %8 = alloca ptr, align 8
  %9 = alloca i32, align 4
  %10 = alloca i32, align 4
  %11 = alloca i32, align 4
  %12 = alloca ptr, align 8
  %13 = alloca ptr, align 8
  %14 = alloca i64, align 8
  %15 = alloca i64, align 8
  %16 = alloca ptr, align 8
  %17 = alloca ptr, align 8
  %18 = alloca ptr, align 8
  %19 = alloca i32, align 4
  %20 = alloca i32, align 4
  %21 = alloca i32, align 4
  store ptr %0, ptr %8, align 8
  store i32 %1, ptr %9, align 4
  store i32 %2, ptr %10, align 4
  store i32 %3, ptr %11, align 4
  store ptr %4, ptr %12, align 8
  store ptr %5, ptr %13, align 8
  call void @llvm.lifetime.start.p0(i64 8, ptr %14) #5
  call void @llvm.lifetime.start.p0(i64 8, ptr %15) #5
  call void @llvm.lifetime.start.p0(i64 8, ptr %16) #5
  %22 = load ptr, ptr %8, align 8
  %23 = getelementptr inbounds nuw %struct.sock_gres, ptr %22, i32 0, i32 4
  %24 = load ptr, ptr %23, align 8
  %25 = getelementptr inbounds nuw %struct.gres_state, ptr %24, i32 0, i32 2
  %26 = load ptr, ptr %25, align 8
  store ptr %26, ptr %16, align 8
  call void @llvm.lifetime.start.p0(i64 8, ptr %17) #5
  %27 = load ptr, ptr %8, align 8
  %28 = getelementptr inbounds nuw %struct.sock_gres, ptr %27, i32 0, i32 5
  %29 = load ptr, ptr %28, align 8
  %30 = getelementptr inbounds nuw %struct.gres_state, ptr %29, i32 0, i32 2
  %31 = load ptr, ptr %30, align 8
  store ptr %31, ptr %17, align 8
  call void @llvm.lifetime.start.p0(i64 8, ptr %18) #5
  %32 = load i32, ptr %11, align 4
  %33 = icmp eq i32 %32, -1
  br i1 %33, label %34, label %45

34:                                               ; preds = %6
  %35 = load ptr, ptr %8, align 8
  %36 = getelementptr inbounds nuw %struct.sock_gres, ptr %35, i32 0, i32 0
  %37 = load ptr, ptr %36, align 8
  %38 = icmp ne ptr %37, null
  br i1 %38, label %39, label %43

39:                                               ; preds = %34
  %40 = load ptr, ptr %8, align 8
  %41 = getelementptr inbounds nuw %struct.sock_gres, ptr %40, i32 0, i32 0
  %42 = load ptr, ptr %41, align 8
  store ptr %42, ptr %18, align 8
  br label %44

43:                                               ; preds = %34
  store i64 0, ptr %7, align 8
  store i32 1, ptr %19, align 4
  br label %181

44:                                               ; preds = %39
  br label %69

45:                                               ; preds = %6
  %46 = load ptr, ptr %8, align 8
  %47 = getelementptr inbounds nuw %struct.sock_gres, ptr %46, i32 0, i32 1
  %48 = load ptr, ptr %47, align 8
  %49 = icmp ne ptr %48, null
  br i1 %49, label %50, label %67

50:                                               ; preds = %45
  %51 = load ptr, ptr %8, align 8
  %52 = getelementptr inbounds nuw %struct.sock_gres, ptr %51, i32 0, i32 1
  %53 = load ptr, ptr %52, align 8
  %54 = load i32, ptr %11, align 4
  %55 = sext i32 %54 to i64
  %56 = getelementptr inbounds ptr, ptr %53, i64 %55
  %57 = load ptr, ptr %56, align 8
  %58 = icmp ne ptr %57, null
  br i1 %58, label %59, label %67

59:                                               ; preds = %50
  %60 = load ptr, ptr %8, align 8
  %61 = getelementptr inbounds nuw %struct.sock_gres, ptr %60, i32 0, i32 1
  %62 = load ptr, ptr %61, align 8
  %63 = load i32, ptr %11, align 4
  %64 = sext i32 %63 to i64
  %65 = getelementptr inbounds ptr, ptr %62, i64 %64
  %66 = load ptr, ptr %65, align 8
  store ptr %66, ptr %18, align 8
  br label %68

67:                                               ; preds = %50, %45
  store i64 0, ptr %7, align 8
  store i32 1, ptr %19, align 4
  br label %181

68:                                               ; preds = %59
  br label %69

69:                                               ; preds = %68, %44
  %70 = load i32, ptr %9, align 4
  %71 = sext i32 %70 to i64
  store i64 %71, ptr %14, align 8
  %72 = load ptr, ptr %16, align 8
  %73 = getelementptr inbounds nuw %struct.gres_job_state, ptr %72, i32 0, i32 13
  %74 = load ptr, ptr %73, align 8
  %75 = load i32, ptr %10, align 4
  %76 = sext i32 %75 to i64
  %77 = getelementptr inbounds ptr, ptr %74, i64 %76
  %78 = load ptr, ptr %77, align 8
  %79 = call i64 @slurm_bit_size(ptr noundef %78)
  store i64 %79, ptr %15, align 8
  call void @llvm.lifetime.start.p0(i64 4, ptr %20) #5
  store i32 0, ptr %20, align 4
  br label %80

80:                                               ; preds = %173, %69
  %81 = load i32, ptr %20, align 4
  %82 = sext i32 %81 to i64
  %83 = load i64, ptr %15, align 8
  %84 = icmp ult i64 %82, %83
  br i1 %84, label %85, label %88

85:                                               ; preds = %80
  %86 = load i64, ptr %14, align 8
  %87 = icmp ne i64 %86, 0
  br label %88

88:                                               ; preds = %85, %80
  %89 = phi i1 [ false, %80 ], [ %87, %85 ]
  br i1 %89, label %91, label %90

90:                                               ; preds = %88
  store i32 2, ptr %19, align 4
  call void @llvm.lifetime.end.p0(i64 4, ptr %20) #5
  br label %176

91:                                               ; preds = %88
  call void @llvm.lifetime.start.p0(i64 4, ptr %21) #5
  %92 = load ptr, ptr %12, align 8
  %93 = icmp ne ptr %92, null
  br i1 %93, label %94, label %100

94:                                               ; preds = %91
  %95 = load ptr, ptr %12, align 8
  %96 = load i32, ptr %20, align 4
  %97 = sext i32 %96 to i64
  %98 = getelementptr inbounds i32, ptr %95, i64 %97
  %99 = load i32, ptr %98, align 4
  br label %102

100:                                              ; preds = %91
  %101 = load i32, ptr %20, align 4
  br label %102

102:                                              ; preds = %100, %94
  %103 = phi i32 [ %99, %94 ], [ %101, %100 ]
  store i32 %103, ptr %21, align 4
  %104 = load ptr, ptr %18, align 8
  %105 = load i32, ptr %21, align 4
  %106 = sext i32 %105 to i64
  %107 = call i32 @slurm_bit_test(ptr noundef %104, i64 noundef %106)
  %108 = icmp ne i32 %107, 0
  br i1 %108, label %110, label %109

109:                                              ; preds = %102
  store i32 4, ptr %19, align 4
  br label %170

110:                                              ; preds = %102
  %111 = load ptr, ptr %16, align 8
  %112 = getelementptr inbounds nuw %struct.gres_job_state, ptr %111, i32 0, i32 13
  %113 = load ptr, ptr %112, align 8
  %114 = load i32, ptr %10, align 4
  %115 = sext i32 %114 to i64
  %116 = getelementptr inbounds ptr, ptr %113, i64 %115
  %117 = load ptr, ptr %116, align 8
  %118 = load i32, ptr %21, align 4
  %119 = sext i32 %118 to i64
  %120 = call i32 @slurm_bit_test(ptr noundef %117, i64 noundef %119)
  %121 = icmp ne i32 %120, 0
  br i1 %121, label %122, label %123

122:                                              ; preds = %110
  store i32 4, ptr %19, align 4
  br label %170

123:                                              ; preds = %110
  %124 = load ptr, ptr %8, align 8
  %125 = getelementptr inbounds nuw %struct.sock_gres, ptr %124, i32 0, i32 10
  %126 = load i8, ptr %125, align 8, !range !8, !noundef !9
  %127 = trunc i8 %126 to i1
  br i1 %127, label %137, label %128

128:                                              ; preds = %123
  %129 = load ptr, ptr %17, align 8
  %130 = getelementptr inbounds nuw %struct.gres_node_state, ptr %129, i32 0, i32 8
  %131 = load ptr, ptr %130, align 8
  %132 = load i32, ptr %21, align 4
  %133 = sext i32 %132 to i64
  %134 = call i32 @slurm_bit_test(ptr noundef %131, i64 noundef %133)
  %135 = icmp ne i32 %134, 0
  br i1 %135, label %136, label %137

136:                                              ; preds = %128
  store i32 4, ptr %19, align 4
  br label %170

137:                                              ; preds = %128, %123
  %138 = load ptr, ptr %16, align 8
  %139 = getelementptr inbounds nuw %struct.gres_job_state, ptr %138, i32 0, i32 13
  %140 = load ptr, ptr %139, align 8
  %141 = load i32, ptr %10, align 4
  %142 = sext i32 %141 to i64
  %143 = getelementptr inbounds ptr, ptr %140, i64 %142
  %144 = load ptr, ptr %143, align 8
  %145 = load i32, ptr %21, align 4
  %146 = sext i32 %145 to i64
  call void @slurm_bit_set(ptr noundef %144, i64 noundef %146)
  %147 = load ptr, ptr %16, align 8
  %148 = getelementptr inbounds nuw %struct.gres_job_state, ptr %147, i32 0, i32 14
  %149 = load ptr, ptr %148, align 8
  %150 = load i32, ptr %10, align 4
  %151 = sext i32 %150 to i64
  %152 = getelementptr inbounds i64, ptr %149, i64 %151
  %153 = load i64, ptr %152, align 8
  %154 = add i64 %153, 1
  store i64 %154, ptr %152, align 8
  %155 = load i64, ptr %14, align 8
  %156 = add i64 %155, -1
  store i64 %156, ptr %14, align 8
  %157 = load ptr, ptr %13, align 8
  %158 = icmp ne ptr %157, null
  br i1 %158, label %159, label %169

159:                                              ; preds = %137
  %160 = load ptr, ptr %12, align 8
  %161 = icmp ne ptr %160, null
  br i1 %161, label %162, label %169

162:                                              ; preds = %159
  store i32 0, ptr %20, align 4
  %163 = load ptr, ptr %12, align 8
  %164 = load ptr, ptr %13, align 8
  %165 = load i32, ptr %21, align 4
  %166 = load i64, ptr %15, align 8
  %167 = trunc i64 %166 to i32
  %168 = load ptr, ptr %17, align 8
  call void @_update_and_sort_by_links(ptr noundef %163, ptr noundef %164, i32 noundef %165, i32 noundef %167, ptr noundef %168)
  br label %169

169:                                              ; preds = %162, %159, %137
  store i32 0, ptr %19, align 4
  br label %170

170:                                              ; preds = %169, %136, %122, %109
  call void @llvm.lifetime.end.p0(i64 4, ptr %21) #5
  %171 = load i32, ptr %19, align 4
  switch i32 %171, label %183 [
    i32 0, label %172
    i32 4, label %173
  ]

172:                                              ; preds = %170
  br label %173

173:                                              ; preds = %172, %170
  %174 = load i32, ptr %20, align 4
  %175 = add nsw i32 %174, 1
  store i32 %175, ptr %20, align 4
  br label %80, !llvm.loop !63

176:                                              ; preds = %90
  %177 = load i32, ptr %9, align 4
  %178 = sext i32 %177 to i64
  %179 = load i64, ptr %14, align 8
  %180 = sub i64 %178, %179
  store i64 %180, ptr %7, align 8
  store i32 1, ptr %19, align 4
  br label %181

181:                                              ; preds = %176, %67, %43
  call void @llvm.lifetime.end.p0(i64 8, ptr %18) #5
  call void @llvm.lifetime.end.p0(i64 8, ptr %17) #5
  call void @llvm.lifetime.end.p0(i64 8, ptr %16) #5
  call void @llvm.lifetime.end.p0(i64 8, ptr %15) #5
  call void @llvm.lifetime.end.p0(i64 8, ptr %14) #5
  %182 = load i64, ptr %7, align 8
  ret i64 %182

183:                                              ; preds = %170
  unreachable
}