; Function Attrs: nounwind uwtable
define internal fastcc i64 @_pick_gres_topo(ptr noundef readonly captures(none) %0, i32 noundef %1, i32 noundef %2, i32 noundef %3, ptr noundef %4, ptr noundef %5) unnamed_addr #0 {
  %7 = getelementptr inbounds nuw i8, ptr %0, i64 32
  %8 = load ptr, ptr %7, align 8
  %9 = getelementptr inbounds nuw i8, ptr %8, i64 8
  %10 = load ptr, ptr %9, align 8
  %11 = getelementptr inbounds nuw i8, ptr %0, i64 40
  %12 = load ptr, ptr %11, align 8
  %13 = getelementptr inbounds nuw i8, ptr %12, i64 8
  %14 = load ptr, ptr %13, align 8
  %15 = icmp eq i32 %3, -1
  br i1 %15, label %16, label %18

16:                                               ; preds = %6
  %17 = load ptr, ptr %0, align 8
  %.not59 = icmp eq ptr %17, null
  br i1 %.not59, label %146, label %25

18:                                               ; preds = %6
  %19 = getelementptr inbounds nuw i8, ptr %0, i64 8
  %20 = load ptr, ptr %19, align 8
  %.not = icmp eq ptr %20, null
  br i1 %.not, label %146, label %21

21:                                               ; preds = %18
  %22 = sext i32 %3 to i64
  %23 = getelementptr inbounds ptr, ptr %20, i64 %22
  %24 = load ptr, ptr %23, align 8
  %.not58 = icmp eq ptr %24, null
  br i1 %.not58, label %146, label %25

25:                                               ; preds = %21, %16
  %.046 = phi ptr [ %17, %16 ], [ %24, %21 ]
  %26 = sext i32 %1 to i64
  %27 = getelementptr inbounds nuw i8, ptr %10, i64 88
  %28 = load ptr, ptr %27, align 8
  %29 = sext i32 %2 to i64
  %30 = getelementptr inbounds ptr, ptr %28, i64 %29
  %31 = load ptr, ptr %30, align 8
  %32 = tail call i64 @slurm_bit_size(ptr noundef %31) #8
  %33 = icmp ne i64 %32, 0
  %34 = icmp ne i32 %1, 0
  %35 = and i1 %33, %34
  br i1 %35, label %.lr.ph, label %._crit_edge

.lr.ph:                                           ; preds = %25
  %36 = icmp ne ptr %4, null
  %37 = getelementptr inbounds nuw i8, ptr %0, i64 80
  %38 = getelementptr inbounds nuw i8, ptr %14, i64 56
  %39 = getelementptr inbounds nuw i8, ptr %10, i64 96
  %40 = icmp ne ptr %5, null
  %or.cond = and i1 %36, %40
  %41 = trunc i64 %32 to i32
  %42 = icmp sgt i32 %41, 0
  %43 = getelementptr inbounds nuw i8, ptr %14, i64 72
  %wide.trip.count.i = and i64 %32, 2147483647
  %sext = shl i64 %32, 32
  %44 = ashr exact i64 %sext, 32
  br i1 %or.cond, label %.lr.ph.split.us.preheader, label %.lr.ph.split

.lr.ph.split.us.preheader:                        ; preds = %.lr.ph, %86
  %45 = phi i64 [ %88, %86 ], [ 0, %.lr.ph ]
  %.04564.us = phi i32 [ %87, %86 ], [ 0, %.lr.ph ]
  %.04763.us = phi i64 [ %.148.us, %86 ], [ %26, %.lr.ph ]
  %46 = getelementptr inbounds i32, ptr %4, i64 %45
  %47 = load i32, ptr %46, align 4
  %48 = sext i32 %47 to i64
  %49 = tail call i32 @slurm_bit_test(ptr noundef nonnull %.046, i64 noundef %48) #8
  %.not60.us = icmp eq i32 %49, 0
  br i1 %.not60.us, label %86, label %50

50:                                               ; preds = %.lr.ph.split.us.preheader
  %51 = load ptr, ptr %27, align 8
  %52 = getelementptr inbounds ptr, ptr %51, i64 %29
  %53 = load ptr, ptr %52, align 8
  %54 = tail call i32 @slurm_bit_test(ptr noundef %53, i64 noundef %48) #8
  %.not61.us = icmp eq i32 %54, 0
  br i1 %.not61.us, label %55, label %86

55:                                               ; preds = %50
  %56 = load i8, ptr %37, align 8, !range !12, !noundef !13
  %57 = trunc nuw i8 %56 to i1
  br i1 %57, label %61, label %58

58:                                               ; preds = %55
  %59 = load ptr, ptr %38, align 8
  %60 = tail call i32 @slurm_bit_test(ptr noundef %59, i64 noundef %48) #8
  %.not62.us = icmp eq i32 %60, 0
  br i1 %.not62.us, label %61, label %86

61:                                               ; preds = %58, %55
  %62 = load ptr, ptr %27, align 8
  %63 = getelementptr inbounds ptr, ptr %62, i64 %29
  %64 = load ptr, ptr %63, align 8
  tail call void @slurm_bit_set(ptr noundef %64, i64 noundef %48) #8
  %65 = load ptr, ptr %39, align 8
  %66 = getelementptr inbounds i64, ptr %65, i64 %29
  %67 = load i64, ptr %66, align 8
  %68 = add i64 %67, 1
  store i64 %68, ptr %66, align 8
  %69 = add i64 %.04763.us, -1
  br i1 %42, label %.lr.ph.i.us, label %_update_and_sort_by_links.exit.us

.lr.ph.i.us:                                      ; preds = %61
  %70 = zext i32 %47 to i64
  br label %71

71:                                               ; preds = %85, %.lr.ph.i.us
  %indvars.iv.i.us = phi i64 [ 0, %.lr.ph.i.us ], [ %indvars.iv.next.i.us, %85 ]
  %72 = icmp eq i64 %indvars.iv.i.us, %70
  br i1 %72, label %85, label %73

73:                                               ; preds = %71
  %74 = load ptr, ptr %38, align 8
  %75 = tail call i32 @slurm_bit_test(ptr noundef %74, i64 noundef %indvars.iv.i.us) #8
  %.not.i.us = icmp eq i32 %75, 0
  br i1 %.not.i.us, label %76, label %85

76:                                               ; preds = %73
  %77 = load ptr, ptr %43, align 8
  %78 = getelementptr inbounds ptr, ptr %77, i64 %48
  %79 = load ptr, ptr %78, align 8
  %80 = getelementptr inbounds nuw i32, ptr %79, i64 %indvars.iv.i.us
  %81 = load i32, ptr %80, align 4
  %82 = getelementptr inbounds nuw i32, ptr %5, i64 %indvars.iv.i.us
  %83 = load i32, ptr %82, align 4
  %84 = add nsw i32 %83, %81
  store i32 %84, ptr %82, align 4
  br label %85

85:                                               ; preds = %76, %73, %71
  %indvars.iv.next.i.us = add nuw nsw i64 %indvars.iv.i.us, 1
  %exitcond.not.i.us = icmp eq i64 %indvars.iv.next.i.us, %wide.trip.count.i
  br i1 %exitcond.not.i.us, label %_update_and_sort_by_links.exit.us, label %71, !llvm.loop !61

_update_and_sort_by_links.exit.us:                ; preds = %85, %61
  store ptr %5, ptr @sorting_links_cnt, align 8
  tail call void @qsort(ptr noundef nonnull %4, i64 noundef %44, i64 noundef 4, ptr noundef nonnull @_compare_gres_by_links) #8
  store ptr null, ptr @sorting_links_cnt, align 8
  br label %86

86:                                               ; preds = %_update_and_sort_by_links.exit.us, %58, %50, %.lr.ph.split.us.preheader
  %.148.us = phi i64 [ %.04763.us, %.lr.ph.split.us.preheader ], [ %.04763.us, %50 ], [ %.04763.us, %58 ], [ %69, %_update_and_sort_by_links.exit.us ]
  %.1.us = phi i32 [ %.04564.us, %.lr.ph.split.us.preheader ], [ %.04564.us, %50 ], [ %.04564.us, %58 ], [ 0, %_update_and_sort_by_links.exit.us ]
  %87 = add nsw i32 %.1.us, 1
  %88 = sext i32 %87 to i64
  %89 = icmp ugt i64 %32, %88
  %90 = icmp ne i64 %.148.us, 0
  %91 = select i1 %89, i1 %90, i1 false
  br i1 %91, label %.lr.ph.split.us.preheader, label %._crit_edge, !llvm.loop !62

.lr.ph.split:                                     ; preds = %.lr.ph
  br i1 %36, label %.lr.ph.split.split.us, label %.lr.ph.split.split

.lr.ph.split.split.us:                            ; preds = %.lr.ph.split, %116
  %indvars.iv76 = phi i64 [ %indvars.iv.next77, %116 ], [ 0, %.lr.ph.split ]
  %.04763.us66 = phi i64 [ %.148.us70, %116 ], [ %26, %.lr.ph.split ]
  %92 = getelementptr inbounds nuw i32, ptr %4, i64 %indvars.iv76
  %93 = load i32, ptr %92, align 4
  %94 = sext i32 %93 to i64
  %95 = tail call i32 @slurm_bit_test(ptr noundef nonnull %.046, i64 noundef %94) #8
  %.not60.us67 = icmp eq i32 %95, 0
  br i1 %.not60.us67, label %116, label %96

96:                                               ; preds = %.lr.ph.split.split.us
  %97 = load ptr, ptr %27, align 8
  %98 = getelementptr inbounds ptr, ptr %97, i64 %29
  %99 = load ptr, ptr %98, align 8
  %100 = tail call i32 @slurm_bit_test(ptr noundef %99, i64 noundef %94) #8
  %.not61.us68 = icmp eq i32 %100, 0
  br i1 %.not61.us68, label %101, label %116

101:                                              ; preds = %96
  %102 = load i8, ptr %37, align 8, !range !12, !noundef !13
  %103 = trunc nuw i8 %102 to i1
  br i1 %103, label %107, label %104

104:                                              ; preds = %101
  %105 = load ptr, ptr %38, align 8
  %106 = tail call i32 @slurm_bit_test(ptr noundef %105, i64 noundef %94) #8
  %.not62.us69 = icmp eq i32 %106, 0
  br i1 %.not62.us69, label %107, label %116

107:                                              ; preds = %104, %101
  %108 = load ptr, ptr %27, align 8
  %109 = getelementptr inbounds ptr, ptr %108, i64 %29
  %110 = load ptr, ptr %109, align 8
  tail call void @slurm_bit_set(ptr noundef %110, i64 noundef %94) #8
  %111 = load ptr, ptr %39, align 8
  %112 = getelementptr inbounds i64, ptr %111, i64 %29
  %113 = load i64, ptr %112, align 8
  %114 = add i64 %113, 1
  store i64 %114, ptr %112, align 8
  %115 = add i64 %.04763.us66, -1
  br label %116

116:                                              ; preds = %107, %104, %96, %.lr.ph.split.split.us
  %.148.us70 = phi i64 [ %.04763.us66, %.lr.ph.split.split.us ], [ %.04763.us66, %96 ], [ %.04763.us66, %104 ], [ %115, %107 ]
  %indvars.iv.next77 = add nuw nsw i64 %indvars.iv76, 1
  %117 = icmp ugt i64 %32, %indvars.iv.next77
  %118 = icmp ne i64 %.148.us70, 0
  %119 = select i1 %117, i1 %118, i1 false
  br i1 %119, label %.lr.ph.split.split.us, label %._crit_edge, !llvm.loop !62

._crit_edge:                                      ; preds = %142, %116, %86, %25
  %.047.lcssa = phi i64 [ %26, %25 ], [ %.148.us, %86 ], [ %.148.us70, %116 ], [ %.148, %142 ]
  %120 = sub i64 %26, %.047.lcssa
  br label %146

.lr.ph.split.split:                               ; preds = %.lr.ph.split, %142
  %indvars.iv = phi i64 [ %indvars.iv.next, %142 ], [ 0, %.lr.ph.split ]
  %.04763 = phi i64 [ %.148, %142 ], [ %26, %.lr.ph.split ]
  %121 = tail call i32 @slurm_bit_test(ptr noundef nonnull %.046, i64 noundef %indvars.iv) #8
  %.not60 = icmp eq i32 %121, 0
  br i1 %.not60, label %142, label %122

122:                                              ; preds = %.lr.ph.split.split
  %123 = load ptr, ptr %27, align 8
  %124 = getelementptr inbounds ptr, ptr %123, i64 %29
  %125 = load ptr, ptr %124, align 8
  %126 = tail call i32 @slurm_bit_test(ptr noundef %125, i64 noundef %indvars.iv) #8
  %.not61 = icmp eq i32 %126, 0
  br i1 %.not61, label %127, label %142

127:                                              ; preds = %122
  %128 = load i8, ptr %37, align 8, !range !12, !noundef !13
  %129 = trunc nuw i8 %128 to i1
  br i1 %129, label %133, label %130

130:                                              ; preds = %127
  %131 = load ptr, ptr %38, align 8
  %132 = tail call i32 @slurm_bit_test(ptr noundef %131, i64 noundef %indvars.iv) #8
  %.not62 = icmp eq i32 %132, 0
  br i1 %.not62, label %133, label %142

133:                                              ; preds = %130, %127
  %134 = load ptr, ptr %27, align 8
  %135 = getelementptr inbounds ptr, ptr %134, i64 %29
  %136 = load ptr, ptr %135, align 8
  tail call void @slurm_bit_set(ptr noundef %136, i64 noundef %indvars.iv) #8
  %137 = load ptr, ptr %39, align 8
  %138 = getelementptr inbounds i64, ptr %137, i64 %29
  %139 = load i64, ptr %138, align 8
  %140 = add i64 %139, 1
  store i64 %140, ptr %138, align 8
  %141 = add i64 %.04763, -1
  br label %142

142:                                              ; preds = %133, %130, %122, %.lr.ph.split.split
  %.148 = phi i64 [ %.04763, %.lr.ph.split.split ], [ %.04763, %122 ], [ %.04763, %130 ], [ %141, %133 ]
  %indvars.iv.next = add nuw nsw i64 %indvars.iv, 1
  %143 = icmp ugt i64 %32, %indvars.iv.next
  %144 = icmp ne i64 %.148, 0
  %145 = select i1 %143, i1 %144, i1 false
  br i1 %145, label %.lr.ph.split.split, label %._crit_edge, !llvm.loop !62

146:                                              ; preds = %18, %21, %16, %._crit_edge
  %.0 = phi i64 [ %120, %._crit_edge ], [ 0, %16 ], [ 0, %21 ], [ 0, %18 ]
  ret i64 %.0
}